target datalayout = "e-m:e-p270:32:32-p271:32:32-p272:64:64-i64:64-i128:128-f80:128-n8:16:32:64-S128"
target triple = "x86_64-pc-linux-gnu"

%struct.anon = type { i32, [0 x i8] }
%struct.FunctionCallInfoBaseData = type { ptr, ptr, ptr, i32, i8, i16, [0 x %struct.NullableDatum] }
%struct.NullableDatum = type { i64, i8 }

@.str.43 = private unnamed_addr constant [17 x i8] c"0123456789abcdef\00", align 1

; Function Attrs: nounwind uwtable
define dso_local ptr @cstring_to_text_with_len(ptr noundef %0, i32 noundef %1) #1 {
  %3 = alloca ptr, align 8
  %4 = alloca i32, align 4
  %5 = alloca ptr, align 8
  store ptr %0, ptr %3, align 8
  store i32 %1, ptr %4, align 4
  call void @llvm.lifetime.start.p0(i64 8, ptr %5) #13
  %6 = load i32, ptr %4, align 4
  %7 = add i32 %6, 4
  %8 = sext i32 %7 to i64
  %9 = call ptr @palloc(i64 noundef %8)
  store ptr %9, ptr %5, align 8
  %10 = load i32, ptr %4, align 4
  %11 = add i32 %10, 4
  %12 = shl i32 %11, 2
  %13 = load ptr, ptr %5, align 8
  %14 = getelementptr inbounds nuw %struct.anon, ptr %13, i32 0, i32 0
  store i32 %12, ptr %14, align 4
  %15 = load ptr, ptr %5, align 8
  %16 = getelementptr inbounds nuw %struct.anon, ptr %15, i32 0, i32 1
  %17 = getelementptr inbounds [0 x i8], ptr %16, i64 0, i64 0
  %18 = load ptr, ptr %3, align 8
  %19 = load i32, ptr %4, align 4
  %20 = sext i32 %19 to i64
  call void @llvm.memcpy.p0.p0.i64(ptr align 4 %17, ptr align 1 %18, i64 %20, i1 false)
  %21 = load ptr, ptr %5, align 8
  call void @llvm.lifetime.end.p0(i64 8, ptr %5) #13
  ret ptr %21
}

; Function Attrs: inlinehint nounwind uwtable
define internal i64 @PointerGetDatum(ptr noundef %0) #0 {
  %2 = alloca ptr, align 8
  store ptr %0, ptr %2, align 8
  %3 = load ptr, ptr %2, align 8
  %4 = ptrtoint ptr %3 to i64
  ret i64 %4
}

; Function Attrs: inlinehint nounwind uwtable
define internal ptr @convert_to_base(i64 noundef %0, i32 noundef %1) #0 {
  %3 = alloca i64, align 8
  %4 = alloca i32, align 4
  %5 = alloca ptr, align 8
  %6 = alloca [64 x i8], align 16
  %7 = alloca ptr, align 8
  %8 = alloca ptr, align 8
  store i64 %0, ptr %3, align 8
  store i32 %1, ptr %4, align 4
  call void @llvm.lifetime.start.p0(i64 8, ptr %5) #13
  store ptr @.str.43, ptr %5, align 8
  call void @llvm.lifetime.start.p0(i64 64, ptr %6) #13
  call void @llvm.lifetime.start.p0(i64 8, ptr %7) #13
  %9 = getelementptr inbounds [64 x i8], ptr %6, i64 0, i64 0
  %10 = getelementptr inbounds nuw i8, ptr %9, i64 64
  store ptr %10, ptr %7, align 8
  call void @llvm.lifetime.start.p0(i64 8, ptr %8) #13
  %11 = load ptr, ptr %7, align 8
  store ptr %11, ptr %8, align 8
  br label %12

12:                                               ; preds = %33, %2
  %13 = load ptr, ptr %5, align 8
  %14 = load i64, ptr %3, align 8
  %15 = load i32, ptr %4, align 4
  %16 = sext i32 %15 to i64
  %17 = urem i64 %14, %16
  %18 = getelementptr inbounds nuw i8, ptr %13, i64 %17
  %19 = load i8, ptr %18, align 1
  %20 = load ptr, ptr %8, align 8
  %21 = getelementptr inbounds i8, ptr %20, i32 -1
  store ptr %21, ptr %8, align 8
  store i8 %19, ptr %21, align 1
  %22 = load i32, ptr %4, align 4
  %23 = sext i32 %22 to i64
  %24 = load i64, ptr %3, align 8
  %25 = udiv i64 %24, %23
  store i64 %25, ptr %3, align 8
  br label %26

26:                                               ; preds = %12
  %27 = load ptr, ptr %8, align 8
  %28 = getelementptr inbounds [64 x i8], ptr %6, i64 0, i64 0
  %29 = icmp ugt ptr %27, %28
  br i1 %29, label %30, label %33

30:                                               ; preds = %26
  %31 = load i64, ptr %3, align 8
  %32 = icmp ne i64 %31, 0
  br label %33

33:                                               ; preds = %30, %26
  %34 = phi i1 [ false, %26 ], [ %32, %30 ]
  br i1 %34, label %12, label %35, !llvm.loop !43

35:                                               ; preds = %33
  %36 = load ptr, ptr %8, align 8
  %37 = load ptr, ptr %7, align 8
  %38 = load ptr, ptr %8, align 8
  %39 = ptrtoint ptr %37 to i64
  %40 = ptrtoint ptr %38 to i64
  %41 = sub i64 %39, %40
  %42 = trunc i64 %41 to i32
  %43 = call ptr @cstring_to_text_with_len(ptr noundef %36, i32 noundef %42)
  call void @llvm.lifetime.end.p0(i64 8, ptr %8) #13
  call void @llvm.lifetime.end.p0(i64 8, ptr %7) #13
  call void @llvm.lifetime.end.p0(i64 64, ptr %6) #13
  call void @llvm.lifetime.end.p0(i64 8, ptr %5) #13
  ret ptr %43
}

; Function Attrs: inlinehint nounwind uwtable
define internal i64 @DatumGetInt64(i64 noundef %0) #0 {
  %2 = alloca i64, align 8
  store i64 %0, ptr %2, align 8
  %3 = load i64, ptr %2, align 8
  ret i64 %3
}

; Function Attrs: nounwind uwtable
define dso_local i64 @to_hex64(ptr noundef %0) #1 {
  %2 = alloca ptr, align 8
  %3 = alloca i64, align 8
  store ptr %0, ptr %2, align 8
  call void @llvm.lifetime.start.p0(i64 8, ptr %3) #13
  %4 = load ptr, ptr %2, align 8
  %5 = getelementptr inbounds nuw %struct.FunctionCallInfoBaseData, ptr %4, i32 0, i32 6
  %6 = getelementptr inbounds [0 x %struct.NullableDatum], ptr %5, i64 0, i64 0
  %7 = getelementptr inbounds nuw %struct.NullableDatum, ptr %6, i32 0, i32 0
  %8 = load i64, ptr %7, align 8
  %9 = call i64 @DatumGetInt64(i64 noundef %8)
  store i64 %9, ptr %3, align 8
  %10 = load i64, ptr %3, align 8
  %11 = call ptr @convert_to_base(i64 noundef %10, i32 noundef 16)
  %12 = call i64 @PointerGetDatum(ptr noundef %11)
  call void @llvm.lifetime.end.p0(i64 8, ptr %3) #13
  ret i64 %12
}