; Function Attrs: nounwind uwtable
define dso_local noundef i64 @to_hex64(ptr noundef readonly captures(none) %0) local_unnamed_addr #0 {
  %2 = alloca [64 x i8], align 16
  %3 = getelementptr inbounds nuw i8, ptr %0, i64 32
  %4 = load i64, ptr %3, align 8
  call void @llvm.lifetime.start.p0(i64 64, ptr nonnull %2) #19
  %5 = getelementptr inbounds nuw i8, ptr %2, i64 64
  br label %6

6:                                                ; preds = %6, %1
  %.011.i = phi i64 [ %4, %1 ], [ %11, %6 ]
  %.0.i = phi ptr [ %5, %1 ], [ %10, %6 ]
  %7 = and i64 %.011.i, 15
  %8 = getelementptr inbounds nuw i8, ptr @.str.43, i64 %7
  %9 = load i8, ptr %8, align 1
  %10 = getelementptr inbounds i8, ptr %.0.i, i64 -1
  store i8 %9, ptr %10, align 1
  %11 = lshr i64 %.011.i, 4
  %12 = icmp ugt ptr %10, %2
  %13 = icmp ugt i64 %.011.i, 15
  %14 = and i1 %13, %12
  br i1 %14, label %6, label %convert_to_base.exit, !llvm.loop !45

convert_to_base.exit:                             ; preds = %6
  %15 = ptrtoint ptr %5 to i64
  %16 = ptrtoint ptr %10 to i64
  %17 = sub i64 %15, %16
  %18 = trunc i64 %17 to i32
  %19 = add i32 %18, 4
  %20 = sext i32 %19 to i64
  %21 = call ptr @palloc(i64 noundef %20) #19
  %22 = shl i32 %19, 2
  store i32 %22, ptr %21, align 4
  %23 = getelementptr inbounds nuw i8, ptr %21, i64 4
  %sext.i = shl i64 %17, 32
  %24 = ashr exact i64 %sext.i, 32
  call void @llvm.memcpy.p0.p0.i64(ptr nonnull align 4 %23, ptr nonnull readonly align 1 %10, i64 %24, i1 false)
  call void @llvm.lifetime.end.p0(i64 64, ptr nonnull %2) #19
  %25 = ptrtoint ptr %21 to i64
  ret i64 %25
}